(dp0
I2
I562
sI12
I2095
sI13
I563
sI20
I2096
sI22
I2098
sI24
I2099
sI30
I2103
sI35
I565
sI37
I566
sI39
I2104
sI44
I2106
sI45
I567
sI49
I568
sI50
I569
sI51
I570
sI52
I2108
sI56
I2110
sI63
I571
sI64
I2111
sI65
I2112
sI67
I2114
sI68
I572
sI69
I2115
sI72
I573
sI77
I2116
sI78
I574
sI79
I575
sI88
I576
sI91
I577
sI96
I578
sI98
I580
sI100
I581
sI104
I582
sI105
I583
sI106
I584
sI108
I2123
sI112
I585
sI114
I2126
sI116
I586
sI117
I587
sI123
I2127
sI124
I2128
sI125
I2129
sI128
I588
sI130
I589
sI133
I2130
sI134
I2131
sI136
I2132
sI138
I2133
sI142
I2134
sI143
I2136
sI147
I2138
sI153
I2139
sI169
I2141
sI171
I2142
sI174
I2143
sI177
I2145
sI180
I2147
sI182
I2148
sI191
I592
sI198
I591
sI205
I2150
sI207
I2151
sI208
I2152
sI213
I2153
sI216
I2154
sI220
I2155
sI221
I593
sI224
I594
sI225
I595
sI235
I596
sI237
I597
sI242
I2158
sI246
I2159
sI250
I2160
sI256
I2163
sI260
I2164
sI265
I2165
sI269
I2167
sI274
I2168
sI284
I598
sI289
I599
sI290
I2171
sI292
I2172
sI294
I2173
sI305
I600
sI307
I601
sI308
I602
s.