(dp0
I1536
I13742
sI1537
I13159
sI1538
I13155
sI1539
I13607
sI1540
I13548
sI1541
I13548
sI1542
I13100
sI1543
I13885
sI1544
I13497
sI1545
I13900
sI1548
I13911
sI1549
I13150
sI1550
I13273
sI1551
I13148
sI1552
I13920
sI1553
I13274
sI1554
I13930
sI1555
I13275
sI1556
I13277
sI342
I13212
sI343
I13413
sI344
I13581
sI345
I13955
sI346
I13111
sI348
I13194
sI349
I13191
sI350
I13188
sI351
I13588
sI352
I13255
sI353
I13419
sI354
I13178
sI356
I13945
sI357
I14088
sI358
I13479
sI359
I14004
sI360
I13264
sI361
I13015
sI362
I13014
sI363
I13010
sI364
I13707
sI365
I13975
sI366
I12992
sI367
I12990
sI368
I13805
sI369
I13499
sI370
I13931
sI371
I13971
sI1436
I13245
sI1437
I13137
sI1439
I13213
sI1440
I13626
sI1441
I13407
sI1443
I13324
sI1444
I13795
sI1445
I13208
sI1446
I13206
sI1447
I13249
sI1448
I13544
sI1450
I13321
sI1451
I13387
sI1452
I13250
sI1453
I13415
sI1454
I13969
sI1455
I13126
sI1456
I13143
sI1457
I13710
sI1458
I13125
sI1459
I13128
sI1460
I13563
sI1462
I13233
sI1463
I13236
sI1464
I13416
sI1465
I13181
sI1466
I13874
sI1467
I13787
sI1468
I13280
sI1469
I13256
sI1470
I13179
sI1471
I13709
sI1472
I13985
sI1473
I13177
sI1474
I13300
sI1475
I13307
sI1476
I13927
sI1477
I13459
sI1478
I13169
sI1479
I13738
sI1480
I13916
sI1481
I13345
sI1483
I13165
sI1484
I13164
sI1485
I13762
sI1486
I13687
sI1487
I13402
sI1488
I13441
sI1489
I13044
sI1490
I13478
sI1491
I13481
sI1492
I13524
sI1493
I13512
sI1495
I13943
sI1496
I13107
sI1497
I13439
sI1498
I13554
sI1499
I13869
sI1500
I13139
sI1501
I13569
sI1503
I13761
sI1504
I13336
sI1505
I13438
sI1506
I13673
sI1507
I13686
sI1509
I13867
sI1510
I13026
sI1511
I13585
sI1512
I13382
sI1513
I13660
sI1514
I13025
sI1515
I13568
sI1516
I13489
sI1517
I13022
sI1518
I13699
sI1519
I13007
sI1520
I13706
sI1521
I13938
sI1522
I13714
sI1523
I13716
sI1524
I13003
sI1525
I13736
sI1526
I13058
sI1527
I13550
sI1528
I13491
sI1529
I13214
sI1530
I13756
sI1531
I12994
sI1532
I13493
sI1533
I13495
sI1534
I13797
sI1535
I13225
s.