(dp0
I0
I176
sI1
I1208
sI4
I1218
sI6
I172
sI8
I1213
sI13
I177
sI15
I182
sI18
I1211
sI19
I1215
sI26
I171
sI28
I1205
sI31
I1220
sI35
I179
sI38
I168
sI40
I1224
sI42
I1206
sI46
I1222
sI49
I1223
sI54
I178
sI56
I1210
sI57
I186
sI58
I174
sI64
I170
sI65
I167
sI66
I184
sI69
I183
sI70
I175
sI71
I1207
sI79
I1217
sI81
I1214
sI84
I1221
sI85
I1212
sI92
I1204
sI96
I1225
sI98
I173
sI99
I1216
sI100
I181
sI102
I1219
s.