(dp0
I1221
I84
sI167
I65
sI168
I38
sI170
I64
sI171
I26
sI172
I6
sI173
I98
sI174
I58
sI175
I70
sI176
I0
sI177
I13
sI178
I54
sI179
I35
sI1204
I92
sI181
I100
sI182
I15
sI183
I69
sI184
I66
sI186
I57
sI1211
I18
sI1212
I85
sI1213
I8
sI1214
I81
sI1205
I28
sI1216
I99
sI1217
I79
sI1218
I4
sI1219
I102
sI1220
I31
sI1206
I42
sI1222
I46
sI1223
I49
sI1224
I40
sI1225
I96
sI1207
I71
sI1208
I1
sI1210
I56
sI1215
I19
s.