(dp0
I13321
I1450
sI13324
I1443
sI13336
I1504
sI13345
I1481
sI13660
I1513
sI13867
I1509
sI13869
I1499
sI13874
I1466
sI13885
I1543
sI13931
I370
sI13382
I1512
sI13387
I1451
sI13900
I1545
sI13911
I1548
sI13402
I1487
sI13916
I1480
sI13407
I1441
sI13920
I1552
sI13413
I343
sI13415
I1453
sI13416
I1464
sI13930
I1554
sI13419
I353
sI13938
I1521
sI13943
I1495
sI13945
I356
sI13438
I1505
sI13439
I1497
sI13441
I1488
sI13955
I345
sI13249
I1447
sI13762
I1485
sI13969
I1454
sI13459
I1477
sI13975
I365
sI13985
I1472
sI13478
I1490
sI13479
I358
sI13481
I1491
sI13489
I1516
sI13491
I1528
sI14004
I359
sI13493
I1532
sI13495
I1533
sI13497
I1544
sI13499
I369
sI12990
I367
sI12992
I366
sI12994
I1531
sI13512
I1493
sI13003
I1524
sI13007
I1519
sI13010
I363
sI13524
I1492
sI13014
I362
sI13015
I361
sI13022
I1517
sI13025
I1514
sI13026
I1510
sI13544
I1448
sI13548
I1540
sI13550
I1527
sI13554
I1498
sI13044
I1489
sI13563
I1460
sI13568
I1515
sI13569
I1501
sI13058
I1526
sI14088
I357
sI13581
I344
sI13585
I1511
sI13588
I351
sI13787
I1467
sI13607
I1539
sI13100
I1542
sI13107
I1496
sI13111
I346
sI13626
I1440
sI13706
I1520
sI13125
I1458
sI13126
I1455
sI13128
I1459
sI13137
I1437
sI13139
I1500
sI13143
I1456
sI13148
I1551
sI13150
I1549
sI13155
I1538
sI13159
I1537
sI13673
I1506
sI13164
I1484
sI13165
I1483
sI13169
I1478
sI13971
I371
sI13686
I1507
sI13687
I1486
sI13177
I1473
sI13178
I354
sI13179
I1470
sI13181
I1465
sI13699
I1518
sI13188
I350
sI13191
I349
sI13194
I348
sI13707
I364
sI13709
I1471
sI13710
I1457
sI13714
I1522
sI13716
I1523
sI13206
I1446
sI13208
I1445
sI13212
I342
sI13213
I1439
sI13214
I1529
sI13736
I1525
sI13225
I1535
sI13738
I1479
sI13742
I1536
sI13233
I1462
sI13236
I1463
sI13756
I1530
sI13245
I1436
sI13761
I1503
sI13250
I1452
sI13255
I352
sI13256
I1469
sI13927
I1476
sI13264
I360
sI13273
I1550
sI13274
I1553
sI13275
I1555
sI13277
I1556
sI13280
I1468
sI13795
I1444
sI13797
I1534
sI13805
I368
sI13300
I1474
sI13307
I1475
s.