(dp0
I2134
I142
sI2136
I143
sI602
I308
sI2095
I12
sI2096
I20
sI562
I2
sI563
I13
sI565
I35
sI566
I37
sI567
I45
sI568
I49
sI569
I50
sI2106
I44
sI571
I63
sI572
I68
sI573
I72
sI2110
I56
sI2111
I64
sI576
I88
sI577
I91
sI578
I96
sI2115
I69
sI580
I98
sI581
I100
sI582
I104
sI583
I105
sI584
I106
sI585
I112
sI586
I116
sI2123
I108
sI588
I128
sI589
I130
sI2126
I114
sI591
I198
sI2128
I124
sI593
I221
sI2130
I133
sI2131
I134
sI2132
I136
sI2133
I138
sI598
I284
sI599
I289
sI600
I305
sI601
I307
sI2138
I147
sI2139
I153
sI2141
I169
sI2142
I171
sI2143
I174
sI2145
I177
sI2147
I180
sI2148
I182
sI2150
I205
sI2151
I207
sI2152
I208
sI2153
I213
sI2154
I216
sI2155
I220
sI2158
I242
sI2159
I246
sI2160
I250
sI2163
I256
sI2164
I260
sI2165
I265
sI2167
I269
sI2168
I274
sI2171
I290
sI2172
I292
sI2173
I294
sI2098
I22
sI2099
I24
sI2103
I30
sI2104
I39
sI570
I51
sI2108
I52
sI574
I78
sI575
I79
sI2112
I65
sI2114
I67
sI2116
I77
sI587
I117
sI2127
I123
sI592
I191
sI2129
I125
sI594
I224
sI595
I225
sI596
I235
sI597
I237
s.