(lp0
S'sgtmax'
p1
aS'ptreserveswn_per_capita'
p2
aS'rural_per_capita'
p3
aS'chiefmin'
p4
aS'entrymin'
p5
aS'rural'
p6
aS'institutionalized_adult_local_jail_white_per_capita'
p7
aS'institutionalized_black_per_capita'
p8
aS'totptemp'
p9
aS'total_income_estimate_white_per_capita'
p10
aS'drugforf_per_capita'
p11
aS'entrymax'
p12
aS'white_per_capita'
p13
aS'urban_per_capita'
p14
aS'numfixcam_per_capita'
p15
aS'chiefmax'
p16
aS'numothunm_per_capita'
p17
aS'opbudget_per_capita'
p18
aS'numpatr_per_capita'
p19
aS'institutionalized_adult_white'
p20
aS'civptemp_per_capita'
p21
aS'numumkcars_per_capita'
p22
aS'black_over_white_institutionalized_juvenile_disparity'
p23
aS'numsro_per_capita'
p24
aS'sgtmin'
p25
aS'totftemp'
p26
aS'totinsrv'
p27
aS'ptreserveswn'
p28
aS'numcarcam'
p29
aS'totftemp_per_capita'
p30
aS'institutionalized_adult_black'
p31
aS'male'
p32
aS'institutionalized_all_per_capita'
p33
aS'black_over_white_population_disparity'
p34
aS'nummrkcars_per_capita'
p35
aS'institutionalized_juvenile_white'
p36
aS'numrespoff'
p37
aS'institutionalized_juvenile_white_per_capita'
p38
aS'total_income_estimate_all_per_capita'
p39
aS'institutionalized_adult_state_prison_all'
p40
aS'male_per_capita'
p41
aS'institutionalized_adult_black_per_capita'
p42
aS'population_per_capita'
p43
aS'female_per_capita'
p44
aS'nummrkcars'
p45
aS'drugforf'
p46
aS'swnptemp'
p47
aS'black_over_white_income_disparity'
p48
aS'totfield_per_capita'
p49
aS'chiefmax_per_capita'
p50
aS'amerind_per_capita'
p51
aS'totfield'
p52
aS'female'
p53
aS'asian_per_capita'
p54
aS'institutionalized_adult_white_per_capita'
p55
aS'numsro'
p56
aS'numrespoff_per_capita'
p57
aS'nummobcam_per_capita'
p58
aS'total_income_estimate_all'
p59
aS'swnptemp_per_capita'
p60
aS'nummotor_per_capita'
p61
aS'ftdrugoff'
p62
aS'institutionalized_adult_local_jail_white'
p63
aS'population_black_per_capita'
p64
aS'ftdrugoff_per_capita'
p65
aS'institutionalized_adult_all_per_capita'
p66
aS'black_over_white_institutionalized_adult_disparity'
p67
aS'black_over_white_institutionalized_adult_local_jail_disparity'
p68
aS'institutionalized_white_per_capita'
p69
aS'population_black'
p70
aS'numothunm'
p71
aS'numcpo_per_capita'
p72
aS'black_over_white_officer_disparity'
p73
a.