(lp0
S'asian_per_capita'
p1
aS'totacad'
p2
aS'opbudget_per_capita'
p3
aS'white_officer_disparity'
p4
aS'hispanic_per_capita'
p5
aS'institutionalized_juvenile_white'
p6
aS'entrymin'
p7
aS'numfixcam_per_capita'
p8
aS'sgtmin'
p9
aS'unkrace'
p10
aS'numinvst_per_capita'
p11
aS'totfield_per_capita'
p12
aS'total_income_estimate_white_per_capita'
p13
aS'black_over_white_institutionalized_adult_disparity'
p14
aS'rural_per_capita'
p15
aS'sgtmax'
p16
aS'chiefmax_per_capita'
p17
aS'institutionalized_white_per_capita'
p18
aS'totftemp'
p19
aS'numcarcam'
p20
aS'numcarcam_per_capita'
p21
aS'unkrace_per_capita'
p22
aS'chiefmin'
p23
aS'numumkcars_per_capita'
p24
aS'numrespoff_per_capita'
p25
aS'black_over_white_institutionalized_juvenile_disparity'
p26
aS'institutionalized_juvenile_white_per_capita'
p27
aS'entrymax'
p28
a.