(lp0
S'entrymin'
p1
aS'totacad'
p2
aS'sgtmax'
p3
aS'rural_per_capita'
p4
aS'sgtmin'
p5
aS'urban_per_capita'
p6
aS'entrymax'
p7
aS'opbudget_per_capita'
p8
aS'female_per_capita'
p9
aS'hispanic_per_capita'
p10
aS'rural'
p11
aS'total_income_estimate_white_per_capita'
p12
aS'black_over_white_institutionalized_disparity'
p13
aS'nummrkcars_per_capita'
p14
aS'chiefmin'
p15
aS'swnauthemp_per_capita'
p16
aS'chiefmax'
p17
aS'institutionalized_black_per_capita'
p18
aS'civftemp_per_capita'
p19
aS'institutionalized_juvenile_white'
p20
aS'swnftemp_per_capita'
p21
aS'black_per_capita'
p22
aS'opbudget'
p23
aS'totptemp_per_capita'
p24
aS'total_income_estimate_all_per_capita'
p25
aS'totinsrv_per_capita'
p26
aS'totfield_per_capita'
p27
aS'white_officer_disparity'
p28
aS'institutionalized_adult_all_per_capita'
p29
aS'institutionalized_adult_local_jail_white_per_capita'
p30
aS'totfield'
p31
aS'numothunm_per_capita'
p32
aS'white_per_capita'
p33
aS'totgender_per_capita'
p34
aS'numsro_per_capita'
p35
aS'institutionalized_all_per_capita'
p36
aS'totinsrv'
p37
aS'drugforf'
p38
aS'institutionalized_black'
p39
aS'civptemp_per_capita'
p40
aS'totptemp'
p41
aS'institutionalized_white_per_capita'
p42
aS'drugforf_per_capita'
p43
aS'urban'
p44
aS'total_income_estimate_black'
p45
aS'institutionalized_juvenile_all_per_capita'
p46
aS'civftemp'
p47
aS'black_over_white_institutionalized_adult_disparity'
p48
aS'swnauthemp'
p49
aS'numcpo_per_capita'
p50
aS'civptemp'
p51
aS'institutionalized_juvenile_white_per_capita'
p52
aS'total_income_estimate_black_per_capita'
p53
aS'institutionalized_adult_local_jail_all_per_capita'
p54
aS'numumkcars_per_capita'
p55
aS'ptreserveswn_per_capita'
p56
aS'institutionalized_adult_black_per_capita'
p57
aS'ftdrugoff_per_capita'
p58
aS'sgtmin_per_capita'
p59
aS'institutionalized_juvenile_all'
p60
aS'swnptemp'
p61
aS'swnftemp'
p62
aS'numrespoff_per_capita'
p63
aS'black_over_white_officer_disparity'
p64
aS'numumkcars'
p65
aS'population_black_per_capita'
p66
aS'numfixcam'
p67
aS'institutionalized_white'
p68
a.