(lp0
S'asian_per_capita'
p1
aS'totacad'
p2
aS'entrymin'
p3
aS'white_officer_disparity'
p4
aS'sgtmin'
p5
aS'opbudget_per_capita'
p6
aS'unkrace'
p7
aS'black_per_capita'
p8
aS'numfixcam_per_capita'
p9
aS'numinvst_per_capita'
p10
aS'female_per_capita'
p11
aS'ptreserveswn_per_capita'
p12
aS'totinsrv'
p13
aS'black'
p14
aS'entrymax'
p15
aS'institutionalized_juvenile_white_per_capita'
p16
aS'numrespoff_per_capita'
p17
aS'black_over_white_institutionalized_adult_disparity'
p18
aS'urban_per_capita'
p19
aS'numcarcam'
p20
aS'institutionalized_juvenile_white'
p21
aS'rural'
p22
aS'black_over_white_institutionalized_juvenile_disparity'
p23
aS'rural_per_capita'
p24
aS'hispanic_per_capita'
p25
aS'numinvst'
p26
aS'sgtmax'
p27
aS'civftemp_per_capita'
p28
aS'total_income_estimate_white_per_capita'
p29
aS'amerind_per_capita'
p30
aS'black_over_white_institutionalized_adult_local_jail_disparity'
p31
aS'total_income_estimate_all_per_capita'
p32
aS'numothunm_per_capita'
p33
aS'drugforf_per_capita'
p34
aS'chiefmin_per_capita'
p35
aS'entrymin_per_capita'
p36
aS'black_officer_disparity'
p37
aS'civptemp_per_capita'
p38
a.