(lp0
S'totacad'
p1
aS'sgtmin'
p2
aS'numrespoff_per_capita'
p3
aS'black_over_white_income_disparity'
p4
aS'forcible_rape_per_capita'
p5
aS'civftemp_per_capita'
p6
aS'entrymax'
p7
aS'sgtmax'
p8
aS'motor_vehicle_theft_per_capita'
p9
aS'entrymin'
p10
aS'black_officer_disparity'
p11
aS'rural_per_capita'
p12
aS'black_over_white_population_disparity'
p13
aS'nummrkcars_per_capita'
p14
aS'swnauthemp_per_capita'
p15
aS'urban'
p16
aS'institutionalized_juvenile_black_per_capita'
p17
aS'total_income_estimate_black_per_capita'
p18
aS'burglary_per_capita'
p19
aS'numfixcam_per_capita'
p20
aS'robbery'
p21
aS'black_over_white_officer_disparity'
p22
aS'institutionalized_juvenile_white_per_capita'
p23
aS'institutionalized_juvenile_all_per_capita'
p24
aS'institutionalized_juvenile_white'
p25
aS'totinsrv'
p26
aS'numumkcars_per_capita'
p27
aS'institutionalized_white'
p28
aS'sgtmax_per_capita'
p29
aS'institutionalized_white_per_capita'
p30
aS'rural'
p31
aS'total'
p32
aS'swnauthemp'
p33
aS'male_per_capita'
p34
aS'chiefmax'
p35
aS'institutionalized_all_per_capita'
p36
aS'totinsrv_per_capita'
p37
aS'female'
p38
aS'total_income_estimate_black'
p39
aS'ftdrugoff_per_capita'
p40
aS'drugforf_per_capita'
p41
aS'institutionalized_adult_all_per_capita'
p42
aS'totfield_per_capita'
p43
aS'total_income_estimate_all_per_capita'
p44
aS'white_officer_disparity'
p45
aS'chiefmin_per_capita'
p46
aS'white_per_capita'
p47
aS'sgtmin_per_capita'
p48
aS'total_income_estimate_all'
p49
aS'property_crime_total'
p50
aS'aggravated_assault'
p51
aS'total_income_estimate_white_per_capita'
p52
aS'numprocserv'
p53
aS'motor_vehicle_theft'
p54
aS'totftemp_per_capita'
p55
aS'numboats'
p56
aS'black'
p57
a.