(lp0
S'opbudget_per_capita'
p1
aS'urban_per_capita'
p2
aS'numothmrk_per_capita'
p3
aS'chiefmin'
p4
aS'totgender'
p5
aS'totacad'
p6
aS'population_per_capita'
p7
aS'sgtmax'
p8
aS'entrymin'
p9
aS'population'
p10
aS'population_white_per_capita'
p11
aS'total_income_estimate_black_per_capita'
p12
aS'black_over_white_population_disparity'
p13
aS'sgtmin'
p14
aS'entrymax'
p15
aS'white'
p16
aS'totacad_per_capita'
p17
aS'civftemp_per_capita'
p18
aS'total_income_estimate_white_per_capita'
p19
aS'black_over_white_institutionalized_disparity'
p20
aS'total_income_estimate_all_per_capita'
p21
aS'numothunm_per_capita'
p22
aS'white_officer_disparity'
p23
aS'male_per_capita'
p24
aS'population_black'
p25
aS'black_over_white_income_disparity'
p26
aS'institutionalized_juvenile_white'
p27
aS'black_officer_disparity'
p28
aS'totgender_per_capita'
p29
aS'totfield'
p30
aS'white_per_capita'
p31
aS'institutionalized_all_per_capita'
p32
aS'swnauthemp_per_capita'
p33
aS'sgtmin_per_capita'
p34
aS'numcarcam'
p35
aS'female_per_capita'
p36
aS'totinsrv_per_capita'
p37
aS'institutionalized_white'
p38
a.