(lp0
S'entrymin_per_capita'
p1
aS'sgtmax'
p2
aS'sgtmin_per_capita'
p3
aS'sgtmax_per_capita'
p4
aS'entrymin'
p5
aS'rural'
p6
aS'chiefmin'
p7
aS'totacad'
p8
aS'entrymax_per_capita'
p9
aS'totacad_per_capita'
p10
aS'entrymax'
p11
aS'urban_per_capita'
p12
aS'rural_per_capita'
p13
aS'chiefmax_per_capita'
p14
aS'chiefmin_per_capita'
p15
aS'black_over_white_institutionalized_disparity'
p16
aS'numcarcam_per_capita'
p17
aS'opbudget_per_capita'
p18
aS'totptemp_per_capita'
p19
aS'black_over_white_income_disparity'
p20
aS'sgtmin'
p21
aS'white_officer_disparity'
p22
aS'white_per_capita'
p23
aS'totptemp'
p24
aS'institutionalized_black_per_capita'
p25
aS'black_over_white_population_disparity'
p26
aS'institutionalized_white'
p27
aS'hispanic'
p28
aS'civptemp'
p29
aS'institutionalized_juvenile_white'
p30
aS'institutionalized_black'
p31
aS'population_per_capita'
p32
aS'totinsrv_per_capita'
p33
aS'urban'
p34
aS'civptemp_per_capita'
p35
aS'population_black_per_capita'
p36
aS'white'
p37
aS'total_per_capita'
p38
aS'total_income_estimate_black'
p39
aS'numfixcam'
p40
aS'swnauthemp'
p41
aS'total_income_estimate_black_per_capita'
p42
aS'black_officer_disparity'
p43
aS'population_white'
p44
aS'numsro_per_capita'
p45
aS'civftemp'
p46
aS'population_white_per_capita'
p47
aS'totinsrv'
p48
aS'institutionalized_juvenile_white_per_capita'
p49
aS'numrespoff'
p50
aS'drugforf_per_capita'
p51
aS'black_over_white_institutionalized_adult_disparity'
p52
aS'swnauthemp_per_capita'
p53
aS'population_black'
p54
aS'institutionalized_white_per_capita'
p55
aS'swnptemp_per_capita'
p56
aS'black_over_white_officer_disparity'
p57
aS'total_income_estimate_white'
p58
aS'ptreserveswn_per_capita'
p59
aS'institutionalized_juvenile_all'
p60
aS'numcarcam'
p61
aS'swnftemp'
p62
aS'numothmrk_per_capita'
p63
aS'nummrkcars'
p64
aS'total_income_estimate_all'
p65
aS'numrespoff_per_capita'
p66
aS'black_over_white_institutionalized_juvenile_disparity'
p67
aS'civftemp_per_capita'
p68
aS'female'
p69
aS'numcpo_per_capita'
p70
aS'chiefmax'
p71
aS'numothmrk'
p72
aS'swnptemp'
p73
aS'totftemp'
p74
aS'totfield_per_capita'
p75
aS'institutionalized_adult_local_jail_black_per_capita'
p76
a.