(lp0
S'asian_per_totofficers'
p1
aS'totacad'
p2
aS'diversity_index'
p3
aS'sgtmin'
p4
aS'white_officer_disparity'
p5
aS'entrymin'
p6
aS'opbudget_per_capita'
p7
aS'unkrace'
p8
aS'black_over_white_officer_disparity'
p9
aS'amerind_per_totofficers'
p10
aS'black_per_totofficers'
p11
aS'numcarcam'
p12
aS'numinvst'
p13
aS'numfixcam_per_capita'
p14
aS'rural_per_capita'
p15
aS'black_over_white_institutionalized_disparity'
p16
aS'swnauthemp_per_capita'
p17
aS'numinvst_per_capita'
p18
aS'white_per_totofficers'
p19
aS'institutionalized_juvenile_white_per_capita'
p20
aS'black_over_white_institutionalized_adult_disparity'
p21
aS'numrespoff_per_capita'
p22
aS'sgtmax'
p23
aS'total_income_estimate_white_per_capita'
p24
aS'numsro_per_capita'
p25
aS'entrymax'
p26
aS'drugforf_per_capita'
p27
aS'rural'
p28
aS'black_over_white_institutionalized_adult_local_jail_disparity'
p29
aS'totftemp_per_capita'
p30
aS'institutionalized_juvenile_white'
p31
aS'black_officer_disparity'
p32
aS'ptreserveswn_per_capita'
p33
aS'totinsrv'
p34
aS'numcarcam_per_capita'
p35
aS'chiefmin'
p36
a.