(lp0
S'entrymin'
p1
aS'totacad_per_capita'
p2
aS'entrymin_per_capita'
p3
aS'sgtmax_per_capita'
p4
aS'sgtmin'
p5
aS'rural'
p6
aS'sgtmax'
p7
aS'sgtmin_per_capita'
p8
aS'entrymax'
p9
aS'urban'
p10
aS'chiefmin'
p11
aS'entrymax_per_capita'
p12
aS'chiefmin_per_capita'
p13
aS'totacad'
p14
aS'chiefmax'
p15
aS'totptemp'
p16
aS'black_over_white_institutionalized_disparity'
p17
aS'opbudget'
p18
aS'institutionalized_juvenile_white_per_capita'
p19
aS'totftemp'
p20
aS'totinsrv'
p21
aS'black_over_white_officer_disparity'
p22
aS'total_income_estimate_all'
p23
aS'opbudget_per_capita'
p24
aS'white_officer_disparity'
p25
aS'population'
p26
aS'numcarcam'
p27
aS'rural_per_capita'
p28
aS'drugforf'
p29
aS'population_black_per_capita'
p30
aS'totptemp_per_capita'
p31
aS'totfield'
p32
aS'population_per_capita'
p33
aS'total'
p34
aS'institutionalized_white_per_capita'
p35
aS'numcarcam_per_capita'
p36
aS'totinsrv_per_capita'
p37
aS'numfixcam'
p38
aS'total_income_estimate_black'
p39
aS'black_over_white_institutionalized_adult_local_jail_disparity'
p40
aS'swnptemp'
p41
aS'totfield_per_capita'
p42
aS'swnauthemp'
p43
aS'institutionalized_all'
p44
aS'black_over_white_institutionalized_adult_disparity'
p45
aS'numfixcam_per_capita'
p46
aS'numothmrk'
p47
aS'ptreserveswn_per_capita'
p48
aS'institutionalized_black_per_capita'
p49
aS'chiefmax_per_capita'
p50
aS'institutionalized_black'
p51
aS'total_income_estimate_white'
p52
aS'population_white_per_capita'
p53
aS'population_black'
p54
aS'urban_per_capita'
p55
aS'institutionalized_juvenile_all'
p56
aS'institutionalized_juvenile_white'
p57
aS'institutionalized_juvenile_all_per_capita'
p58
aS'totgender'
p59
aS'institutionalized_white'
p60
aS'nummrkcars'
p61
aS'swnptemp_per_capita'
p62
aS'population_white'
p63
aS'drugforf_per_capita'
p64
aS'swnftemp'
p65
aS'black_over_white_population_disparity'
p66
aS'total_income_estimate_black_per_capita'
p67
aS'black_over_white_income_disparity'
p68
aS'swnftemp_per_capita'
p69
aS'civftemp_per_capita'
p70
aS'numcpo_per_capita'
p71
aS'black_officer_disparity'
p72
aS'black'
p73
aS'numumkcars'
p74
aS'male'
p75
aS'female'
p76
aS'civftemp'
p77
aS'nummotor_per_capita'
p78
aS'total_income_estimate_white_per_capita'
p79
aS'male_per_capita'
p80
aS'female_per_capita'
p81
aS'ftdrugoff_per_capita'
p82
aS'numsro_per_capita'
p83
a.