(lp0
S'entrymin'
p1
aS'opbudget_per_capita'
p2
aS'rural_per_capita'
p3
aS'amerind_per_capita'
p4
aS'population_black_per_capita'
p5
aS'chiefmin'
p6
aS'entrymax'
p7
aS'total_income_estimate_all_per_capita'
p8
aS'black_over_white_institutionalized_adult_local_jail_disparity'
p9
aS'total_income_estimate_white_per_capita'
p10
aS'numothmrk_per_capita'
p11
aS'female_per_capita'
p12
aS'nummrkcars_per_capita'
p13
aS'urban_per_capita'
p14
aS'swnftemp_per_capita'
p15
aS'institutionalized_all_per_capita'
p16
aS'opbudget'
p17
aS'totacad'
p18
aS'black_per_capita'
p19
aS'black_over_white_institutionalized_disparity'
p20
aS'population_per_capita'
p21
aS'totinsrv_per_capita'
p22
aS'numrespoff_per_capita'
p23
aS'sgtmin'
p24
aS'population_black'
p25
aS'swnauthemp_per_capita'
p26
aS'entrymin_per_capita'
p27
aS'black_over_white_population_disparity'
p28
aS'total_income_estimate_black_per_capita'
p29
aS'numcarcam'
p30
aS'numrespoff'
p31
aS'numumkcars_per_capita'
p32
aS'black_over_white_institutionalized_juvenile_disparity'
p33
aS'nummrkcars'
p34
aS'sgtmin_per_capita'
p35
aS'white_per_capita'
p36
aS'female'
p37
aS'black_over_white_institutionalized_adult_disparity'
p38
aS'totftemp_per_capita'
p39
aS'totptemp'
p40
aS'numcarcam_per_capita'
p41
aS'rural'
p42
aS'civptemp'
p43
aS'male_per_capita'
p44
aS'institutionalized_adult_local_jail_white_per_capita'
p45
aS'sgtmax'
p46
aS'totptemp_per_capita'
p47
aS'institutionalized_white_per_capita'
p48
aS'black_over_white_income_disparity'
p49
aS'totgender_per_capita'
p50
aS'swnauthemp'
p51
aS'total_income_estimate_all'
p52
aS'chiefmax_per_capita'
p53
aS'institutionalized_adult_local_jail_black_per_capita'
p54
aS'chiefmin_per_capita'
p55
aS'ftdrugoff_per_capita'
p56
aS'institutionalized_white'
p57
aS'numothmrk'
p58
aS'swnptemp_per_capita'
p59
aS'totgender'
p60
aS'white'
p61
aS'population'
p62
aS'hispanic_per_capita'
p63
aS'totfield'
p64
aS'numcpo'
p65
aS'urban'
p66
aS'population_white_per_capita'
p67
aS'swnftemp'
p68
aS'institutionalized_juvenile_white'
p69
aS'numothunm_per_capita'
p70
aS'total_income_estimate_black'
p71
aS'institutionalized_adult_white_per_capita'
p72
aS'population_white'
p73
aS'institutionalized_black_per_capita'
p74
aS'nummobcam_per_capita'
p75
a.